; Function Attrs: mustprogress uwtable
define void @_ZN5Ipopt19StandardScalingBase24unapply_vector_scaling_xERKNS_8SmartPtrIKNS_6VectorEEE(ptr dead_on_unwind noalias writable writeonly sret(%"class.Ipopt::SmartPtr.1") align 8 captures(none) initializes((0, 8)) %0, ptr noundef nonnull align 8 dereferenceable(72) %1, ptr noundef nonnull align 8 dereferenceable(8) %2) unnamed_addr #7 align 2 personality ptr @__gxx_personality_v0 {
  %4 = alloca %"class.Ipopt::SmartPtr.0", align 8
  %5 = getelementptr inbounds nuw i8, ptr %1, i64 32
  %6 = load ptr, ptr %5, align 8, !tbaa !20
  %.not = icmp eq ptr %6, null
  br i1 %.not, label %20, label %7

7:                                                ; preds = %3
  call void @llvm.lifetime.start.p0(i64 8, ptr nonnull %4) #17
  %8 = load ptr, ptr %1, align 8, !tbaa !8
  %9 = getelementptr inbounds nuw i8, ptr %8, i64 48
  %10 = load ptr, ptr %9, align 8
  call void %10(ptr dead_on_unwind nonnull writable sret(%"class.Ipopt::SmartPtr.0") align 8 %4, ptr noundef nonnull align 8 dereferenceable(72) %1, ptr noundef nonnull align 8 dereferenceable(8) %2)
  call void @llvm.experimental.noalias.scope.decl(metadata !124)
  %11 = load ptr, ptr %4, align 8, !tbaa !20, !noalias !124
  %.not.i.i.i = icmp eq ptr %11, null
  br i1 %.not.i.i.i, label %.thread, label %12

.thread:                                          ; preds = %7
  store ptr null, ptr %0, align 8, !tbaa !14, !alias.scope !124
  br label %_ZN5Ipopt8SmartPtrINS_6VectorEED2Ev.exit

12:                                               ; preds = %7
  %13 = getelementptr inbounds nuw i8, ptr %11, i64 8
  %14 = load i32, ptr %13, align 8, !tbaa !3, !noalias !124
  store ptr %11, ptr %0, align 8, !tbaa !14, !alias.scope !124
  %15 = icmp eq i32 %14, 0
  br i1 %15, label %16, label %_ZN5Ipopt8SmartPtrINS_6VectorEED2Ev.exit

16:                                               ; preds = %12
  %17 = load ptr, ptr %11, align 8, !tbaa !8
  %18 = getelementptr inbounds nuw i8, ptr %17, i64 8
  %19 = load ptr, ptr %18, align 8
  call void %19(ptr noundef nonnull align 8 dereferenceable(205) %11) #17
  br label %_ZN5Ipopt8SmartPtrINS_6VectorEED2Ev.exit

_ZN5Ipopt8SmartPtrINS_6VectorEED2Ev.exit:         ; preds = %.thread, %12, %16
  call void @llvm.lifetime.end.p0(i64 8, ptr nonnull %4) #17
  br label %26

20:                                               ; preds = %3
  %21 = load ptr, ptr %2, align 8, !tbaa !14
  %.not.i.i.i6 = icmp eq ptr %21, null
  br i1 %.not.i.i.i6, label %_ZN5Ipopt8SmartPtrIKNS_6VectorEEC2ERKS3_.exit, label %22

22:                                               ; preds = %20
  %23 = getelementptr inbounds nuw i8, ptr %21, i64 8
  %24 = load i32, ptr %23, align 8, !tbaa !3
  %25 = add nsw i32 %24, 1
  store i32 %25, ptr %23, align 8, !tbaa !3
  br label %_ZN5Ipopt8SmartPtrIKNS_6VectorEEC2ERKS3_.exit

_ZN5Ipopt8SmartPtrIKNS_6VectorEEC2ERKS3_.exit:    ; preds = %20, %22
  store ptr %21, ptr %0, align 8, !tbaa !14
  br label %26

26:                                               ; preds = %_ZN5Ipopt8SmartPtrIKNS_6VectorEEC2ERKS3_.exit, %_ZN5Ipopt8SmartPtrINS_6VectorEED2Ev.exit
  ret void
}